target datalayout = "e-m:e-p270:32:32-p271:32:32-p272:64:64-i64:64-i128:128-f80:128-n8:16:32:64-S128"
target triple = "x86_64-pc-linux-gnu"

@g_ascii_table = external constant ptr, align 8
@.str.40 = private unnamed_addr constant [3 x i8] c"0x\00", align 1

; Function Attrs: null_pointer_is_valid sspstrong uwtable
define internal zeroext i1 @epl_ishex(ptr noundef %0) #0 {
  %2 = alloca i1, align 1
  %3 = alloca ptr, align 8
  store ptr %0, ptr %3, align 8
  %4 = load ptr, ptr %3, align 8
  %5 = call i32 @g_str_has_prefix(ptr noundef %4, ptr noundef @.str.40)
  %6 = icmp ne i32 %5, 0
  br i1 %6, label %7, label %8

7:                                                ; preds = %1
  store i1 true, ptr %2, align 1
  br label %31

8:                                                ; preds = %1
  br label %9

9:                                                ; preds = %20, %8
  %10 = load ptr, ptr @g_ascii_table, align 8
  %11 = load ptr, ptr %3, align 8
  %12 = load i8, ptr %11, align 1
  %13 = zext i8 %12 to i64
  %14 = getelementptr i16, ptr %10, i64 %13
  %15 = load i16, ptr %14, align 2
  %16 = zext i16 %15 to i32
  %17 = and i32 %16, 1024
  %18 = icmp ne i32 %17, 0
  br i1 %18, label %19, label %23

19:                                               ; preds = %9
  br label %20

20:                                               ; preds = %19
  %21 = load ptr, ptr %3, align 8
  %22 = getelementptr i8, ptr %21, i32 1
  store ptr %22, ptr %3, align 8
  br label %9, !llvm.loop !15

23:                                               ; preds = %9
  %24 = load ptr, ptr %3, align 8
  %25 = load i8, ptr %24, align 1
  %26 = call signext i8 @g_ascii_tolower(i8 noundef signext %25) #16
  %27 = sext i8 %26 to i32
  %28 = icmp eq i32 %27, 104
  br i1 %28, label %29, label %30

29:                                               ; preds = %23
  store i1 true, ptr %2, align 1
  br label %31

30:                                               ; preds = %23
  store i1 false, ptr %2, align 1
  br label %31

31:                                               ; preds = %30, %29, %7
  %32 = load i1, ptr %2, align 1
  ret i1 %32
}

; Function Attrs: null_pointer_is_valid sspstrong uwtable
define internal zeroext i16 @epl_g_key_file_get_uint16(ptr noundef %0, ptr noundef %1, ptr noundef %2, ptr noundef %3) #0 {
  %5 = alloca i16, align 2
  %6 = alloca ptr, align 8
  %7 = alloca ptr, align 8
  %8 = alloca ptr, align 8
  %9 = alloca ptr, align 8
  %10 = alloca i16, align 2
  %11 = alloca ptr, align 8
  %12 = alloca ptr, align 8
  %13 = alloca i32, align 4
  store ptr %0, ptr %6, align 8
  store ptr %1, ptr %7, align 8
  store ptr %2, ptr %8, align 8
  store ptr %3, ptr %9, align 8
  call void @llvm.lifetime.start.p0(i64 2, ptr %10) #13
  store i16 0, ptr %10, align 2
  call void @llvm.lifetime.start.p0(i64 8, ptr %11) #13
  call void @llvm.lifetime.start.p0(i64 8, ptr %12) #13
  %14 = load ptr, ptr %6, align 8
  %15 = load ptr, ptr %7, align 8
  %16 = load ptr, ptr %8, align 8
  %17 = load ptr, ptr %9, align 8
  %18 = call noalias ptr @g_key_file_get_string(ptr noundef %14, ptr noundef %15, ptr noundef %16, ptr noundef %17)
  store ptr %18, ptr %12, align 8
  %19 = load ptr, ptr %12, align 8
  %20 = icmp ne ptr %19, null
  br i1 %20, label %22, label %21

21:                                               ; preds = %4
  store i16 0, ptr %5, align 2
  store i32 1, ptr %13, align 4
  br label %34

22:                                               ; preds = %4
  %23 = load ptr, ptr %12, align 8
  %24 = call zeroext i1 @epl_ishex(ptr noundef %23)
  br i1 %24, label %25, label %28

25:                                               ; preds = %22
  %26 = load ptr, ptr %12, align 8
  %27 = call zeroext i1 @ws_hexstrtou16(ptr noundef %26, ptr noundef %11, ptr noundef %10)
  br label %31

28:                                               ; preds = %22
  %29 = load ptr, ptr %12, align 8
  %30 = call zeroext i1 @ws_strtou16(ptr noundef %29, ptr noundef %11, ptr noundef %10)
  br label %31

31:                                               ; preds = %28, %25
  %32 = load ptr, ptr %12, align 8
  call void @g_free(ptr noundef %32)
  %33 = load i16, ptr %10, align 2
  store i16 %33, ptr %5, align 2
  store i32 1, ptr %13, align 4
  br label %34

34:                                               ; preds = %31, %21
  call void @llvm.lifetime.end.p0(i64 8, ptr %12) #13
  call void @llvm.lifetime.end.p0(i64 8, ptr %11) #13
  call void @llvm.lifetime.end.p0(i64 2, ptr %10) #13
  %35 = load i16, ptr %5, align 2
  ret i16 %35
}