; Function Attrs: null_pointer_is_valid sspstrong uwtable
define internal fastcc zeroext i16 @epl_g_key_file_get_uint16(ptr noundef %0, ptr noundef %1, ptr noundef %2) unnamed_addr #0 {
  %4 = alloca i16, align 2
  %5 = alloca ptr, align 8
  call void @llvm.lifetime.start.p0(i64 2, ptr nonnull %4) #13
  store i16 0, ptr %4, align 2
  call void @llvm.lifetime.start.p0(i64 8, ptr nonnull %5) #13
  %6 = tail call noalias ptr @g_key_file_get_string(ptr noundef %0, ptr noundef %1, ptr noundef %2, ptr noundef null)
  %.not = icmp eq ptr %6, null
  br i1 %.not, label %24, label %7

7:                                                ; preds = %3
  %8 = tail call i32 @g_str_has_prefix(ptr noundef nonnull %6, ptr noundef nonnull @.str.40)
  %.not.i = icmp eq i32 %8, 0
  br i1 %.not.i, label %.preheader.i, label %epl_ishex.exit.thread

.preheader.i:                                     ; preds = %7
  %9 = load ptr, ptr @g_ascii_table, align 8
  br label %10

10:                                               ; preds = %10, %.preheader.i
  %.0.i = phi ptr [ %16, %10 ], [ %6, %.preheader.i ]
  %11 = load i8, ptr %.0.i, align 1
  %12 = zext i8 %11 to i64
  %13 = getelementptr i16, ptr %9, i64 %12
  %14 = load i16, ptr %13, align 2
  %15 = and i16 %14, 1024
  %.not6.i = icmp eq i16 %15, 0
  %16 = getelementptr i8, ptr %.0.i, i64 1
  br i1 %.not6.i, label %epl_ishex.exit, label %10, !llvm.loop !9

epl_ishex.exit:                                   ; preds = %10
  %17 = tail call signext i8 @g_ascii_tolower(i8 noundef signext %11) #16
  %18 = icmp eq i8 %17, 104
  br i1 %18, label %epl_ishex.exit.thread, label %20

epl_ishex.exit.thread:                            ; preds = %7, %epl_ishex.exit
  %19 = call zeroext i1 @ws_hexstrtou16(ptr noundef nonnull %6, ptr noundef nonnull %5, ptr noundef nonnull %4)
  br label %22

20:                                               ; preds = %epl_ishex.exit
  %21 = call zeroext i1 @ws_strtou16(ptr noundef nonnull %6, ptr noundef nonnull %5, ptr noundef nonnull %4)
  br label %22

22:                                               ; preds = %20, %epl_ishex.exit.thread
  call void @g_free(ptr noundef nonnull %6)
  %23 = load i16, ptr %4, align 2
  br label %24

24:                                               ; preds = %3, %22
  %.0 = phi i16 [ %23, %22 ], [ 0, %3 ]
  call void @llvm.lifetime.end.p0(i64 8, ptr nonnull %5) #13
  call void @llvm.lifetime.end.p0(i64 2, ptr nonnull %4) #13
  ret i16 %.0
}